Certificate:
    Data:
        Version: 3 (0x2)
        Serial Number: 1 (0x1)
    Signature Algorithm: sha256WithRSAEncryption
        Issuer: C=JP, ST=Tokyo, L=Skytree, O=KaoriYa, OU=Development, CN=develop.kaoriya.net
        Validity
            Not Before: Feb 16 09:27:51 2016 GMT
            Not After : Feb 15 09:27:51 2017 GMT
        Subject: C=JP, ST=Tokyo, O=KaoriYa, OU=Development, CN=target.test.kaoriya.net
        Subject Public Key Info:
            Public Key Algorithm: rsaEncryption
                Public-Key: (2048 bit)
                Modulus:
                    00:b6:08:5a:c0:19:42:0e:ac:05:33:81:4a:b3:2a:
                    0b:73:86:4c:3e:81:80:da:c4:6f:99:ad:75:e3:c7:
                    06:63:5d:a8:9d:56:c2:f9:1d:92:30:7e:0e:02:c5:
                    fc:27:bd:fc:63:d7:94:af:fb:fa:a1:6b:09:08:e4:
                    86:73:e4:7e:da:8e:7f:b7:8d:58:76:44:6f:7c:af:
                    df:af:03:c6:bf:73:e7:e9:ec:a1:08:7e:d9:c1:27:
                    d8:d1:f3:f9:ef:d9:86:0d:2e:2e:bb:9e:84:1f:f8:
                    69:dc:a7:cb:a2:6d:de:2e:8e:1c:b3:5a:81:ae:03:
                    f6:16:eb:28:39:3f:a1:bc:41:5f:38:0c:0a:a2:ff:
                    4f:28:b4:79:17:84:4a:af:f7:b0:2f:ec:d2:dd:d9:
                    5a:9d:7c:6e:7a:f1:53:df:30:71:08:01:bf:a7:d5:
                    52:b0:1b:d1:27:c5:24:1a:0f:c7:20:67:76:12:1a:
                    d4:0e:ab:1a:ac:d1:db:9d:39:06:a9:80:12:b9:a5:
                    66:52:50:16:b2:e1:a5:31:1b:25:fc:50:d2:8b:66:
                    eb:e8:cc:db:18:75:25:fe:5a:e5:5f:21:5a:be:f0:
                    f5:b8:82:89:7e:a0:71:2f:20:2f:53:e3:0b:ee:eb:
                    3e:9a:d1:10:43:c7:bb:bc:ba:cc:bc:06:cc:dc:4e:
                    75:d5
                Exponent: 65537 (0x10001)
        X509v3 extensions:
            X509v3 Subject Alternative Name: 
                IP Address:127.0.0.1
    Signature Algorithm: sha256WithRSAEncryption
         5b:5d:c8:10:fd:a2:df:38:d7:b3:54:57:d3:d6:0a:4c:1b:02:
         77:b2:08:a9:ff:1c:f8:e1:e2:00:95:9a:d8:0c:90:91:e6:c7:
         21:a7:a9:19:85:87:71:90:47:ac:ee:d7:26:ab:c8:c2:3e:74:
         0d:38:88:b2:89:89:51:7c:f0:fa:2f:58:7f:9c:4d:cb:58:14:
         f4:66:0b:39:42:56:03:b4:ae:79:9d:66:fa:4b:ac:45:86:d4:
         cc:17:8e:97:28:80:d7:fd:91:3e:9b:4f:01:e7:6b:87:2d:2b:
         83:11:e0:85:4e:94:ca:54:bd:c2:e6:52:51:52:78:08:98:76:
         3b:b1:a4:75:df:3d:d8:06:da:57:aa:b6:f2:f2:1f:1a:42:c3:
         8e:d4:77:0e:bf:07:50:58:6d:af:e7:b8:e5:b4:72:0e:26:2e:
         de:07:af:ea:10:84:dd:4b:c4:95:b0:67:db:67:44:26:22:89:
         9a:cb:e0:9a:b2:52:98:42:ea:12:d5:66:04:fc:cd:56:de:3d:
         35:39:68:51:27:00:6b:63:05:8a:fb:1d:44:7a:19:fa:f1:68:
         be:bc:f9:cc:b1:71:b9:87:df:9d:90:f7:87:06:19:99:e8:af:
         d3:50:f0:cb:9a:41:f6:a5:e4:c3:d4:08:8b:c3:95:e9:2c:bf:
         c0:d2:7c:f1
-----BEGIN CERTIFICATE-----
MIIDajCCAlKgAwIBAgIBATANBgkqhkiG9w0BAQsFADB1MQswCQYDVQQGEwJKUDEO
MAwGA1UECAwFVG9reW8xEDAOBgNVBAcMB1NreXRyZWUxEDAOBgNVBAoMB0thb3Jp
WWExFDASBgNVBAsMC0RldmVsb3BtZW50MRwwGgYDVQQDDBNkZXZlbG9wLmthb3Jp
eWEubmV0MB4XDTE2MDIxNjA5Mjc1MVoXDTE3MDIxNTA5Mjc1MVowZzELMAkGA1UE
BhMCSlAxDjAMBgNVBAgMBVRva3lvMRAwDgYDVQQKDAdLYW9yaVlhMRQwEgYDVQQL
DAtEZXZlbG9wbWVudDEgMB4GA1UEAwwXdGFyZ2V0LnRlc3Qua2Fvcml5YS5uZXQw
ggEiMA0GCSqGSIb3DQEBAQUAA4IBDwAwggEKAoIBAQC2CFrAGUIOrAUzgUqzKgtz
hkw+gYDaxG+ZrXXjxwZjXaidVsL5HZIwfg4Cxfwnvfxj15Sv+/qhawkI5IZz5H7a
jn+3jVh2RG98r9+vA8a/c+fp7KEIftnBJ9jR8/nv2YYNLi67noQf+Gncp8uibd4u
jhyzWoGuA/YW6yg5P6G8QV84DAqi/08otHkXhEqv97Av7NLd2VqdfG568VPfMHEI
Ab+n1VKwG9EnxSQaD8cgZ3YSGtQOqxqs0dudOQapgBK5pWZSUBay4aUxGyX8UNKL
ZuvozNsYdSX+WuVfIVq+8PW4gol+oHEvIC9T4wvu6z6a0RBDx7u8usy8BszcTnXV
AgMBAAGjEzARMA8GA1UdEQQIMAaHBH8AAAEwDQYJKoZIhvcNAQELBQADggEBAFtd
yBD9ot8417NUV9PWCkwbAneyCKn/HPjh4gCVmtgMkJHmxyGnqRmFh3GQR6zu1yar
yMI+dA04iLKJiVF88PovWH+cTctYFPRmCzlCVgO0rnmdZvpLrEWG1MwXjpcogNf9
kT6bTwHna4ctK4MR4IVOlMpUvcLmUlFSeAiYdjuxpHXfPdgG2leqtvLyHxpCw47U
dw6/B1BYba/nuOW0cg4mLt4Hr+oQhN1LxJWwZ9tnRCYiiZrL4JqyUphC6hLVZgT8
zVbePTU5aFEnAGtjBYr7HUR6GfrxaL68+cyxcbmH352Q94cGGZnor9NQ8MuaQfal
5MPUCIvDleksv8DSfPE=
-----END CERTIFICATE-----
