Certificate:
    Data:
        Version: 3 (0x2)
        Serial Number: 1 (0x1)
    Signature Algorithm: sha256WithRSAEncryption
        Issuer: C=JP, ST=Tokyo, L=Skytree, O=KaoriYa, OU=Development, CN=develop.kaoriya.net
        Validity
            Not Before: Feb 16 06:44:49 2016 GMT
            Not After : Feb 15 06:44:49 2017 GMT
        Subject: C=JP, ST=Tokyo, O=KaoriYa, OU=Development, CN=localhost.kaoriya.net
        Subject Public Key Info:
            Public Key Algorithm: rsaEncryption
                Public-Key: (2048 bit)
                Modulus:
                    00:b6:08:5a:c0:19:42:0e:ac:05:33:81:4a:b3:2a:
                    0b:73:86:4c:3e:81:80:da:c4:6f:99:ad:75:e3:c7:
                    06:63:5d:a8:9d:56:c2:f9:1d:92:30:7e:0e:02:c5:
                    fc:27:bd:fc:63:d7:94:af:fb:fa:a1:6b:09:08:e4:
                    86:73:e4:7e:da:8e:7f:b7:8d:58:76:44:6f:7c:af:
                    df:af:03:c6:bf:73:e7:e9:ec:a1:08:7e:d9:c1:27:
                    d8:d1:f3:f9:ef:d9:86:0d:2e:2e:bb:9e:84:1f:f8:
                    69:dc:a7:cb:a2:6d:de:2e:8e:1c:b3:5a:81:ae:03:
                    f6:16:eb:28:39:3f:a1:bc:41:5f:38:0c:0a:a2:ff:
                    4f:28:b4:79:17:84:4a:af:f7:b0:2f:ec:d2:dd:d9:
                    5a:9d:7c:6e:7a:f1:53:df:30:71:08:01:bf:a7:d5:
                    52:b0:1b:d1:27:c5:24:1a:0f:c7:20:67:76:12:1a:
                    d4:0e:ab:1a:ac:d1:db:9d:39:06:a9:80:12:b9:a5:
                    66:52:50:16:b2:e1:a5:31:1b:25:fc:50:d2:8b:66:
                    eb:e8:cc:db:18:75:25:fe:5a:e5:5f:21:5a:be:f0:
                    f5:b8:82:89:7e:a0:71:2f:20:2f:53:e3:0b:ee:eb:
                    3e:9a:d1:10:43:c7:bb:bc:ba:cc:bc:06:cc:dc:4e:
                    75:d5
                Exponent: 65537 (0x10001)
        X509v3 extensions:
            X509v3 Subject Alternative Name: 
                IP Address:127.0.0.1
    Signature Algorithm: sha256WithRSAEncryption
         02:ae:95:e3:94:d2:47:d9:0e:34:1a:72:0a:45:f4:4e:66:8f:
         5c:6a:64:32:dd:38:8e:81:70:33:6f:d5:53:89:53:26:00:23:
         7c:e5:d2:c5:9a:24:9b:36:ba:0c:fa:6b:79:a1:f6:27:34:42:
         c1:e4:5f:2b:a3:76:4b:dc:2c:37:91:ae:e0:04:6d:aa:b7:77:
         ab:a0:71:43:23:39:2a:f0:2a:00:89:fd:59:a0:2e:bd:44:8e:
         3e:40:f0:08:d3:c0:c9:ea:6f:fb:72:3a:21:ae:0d:e0:16:6d:
         9a:58:d1:5a:f2:d8:3e:e4:e8:fa:d1:ff:34:46:e1:82:4d:cb:
         9c:59:55:07:14:a2:1d:09:3f:0c:b0:20:e9:81:d8:bf:75:45:
         80:c4:3f:8f:d2:0c:72:5d:d8:d2:a2:42:79:c1:f0:48:11:31:
         61:ea:91:0a:f4:38:23:df:09:2f:83:e8:f8:b2:70:67:be:32:
         20:2d:3a:ea:ac:35:5b:00:5d:d9:d6:e0:5c:5e:ee:3c:fb:d6:
         f5:4d:10:8f:c9:2a:da:32:3e:0b:0d:71:ac:b4:42:a2:76:e6:
         de:fc:37:99:e6:1d:33:f0:e0:2d:17:e2:11:18:8c:bb:3c:f7:
         79:e7:14:6f:b7:4e:78:6a:57:16:35:1d:09:0d:09:00:55:4d:
         7d:2d:36:4b
-----BEGIN CERTIFICATE-----
MIIDaDCCAlCgAwIBAgIBATANBgkqhkiG9w0BAQsFADB1MQswCQYDVQQGEwJKUDEO
MAwGA1UECAwFVG9reW8xEDAOBgNVBAcMB1NreXRyZWUxEDAOBgNVBAoMB0thb3Jp
WWExFDASBgNVBAsMC0RldmVsb3BtZW50MRwwGgYDVQQDDBNkZXZlbG9wLmthb3Jp
eWEubmV0MB4XDTE2MDIxNjA2NDQ0OVoXDTE3MDIxNTA2NDQ0OVowZTELMAkGA1UE
BhMCSlAxDjAMBgNVBAgMBVRva3lvMRAwDgYDVQQKDAdLYW9yaVlhMRQwEgYDVQQL
DAtEZXZlbG9wbWVudDEeMBwGA1UEAwwVbG9jYWxob3N0Lmthb3JpeWEubmV0MIIB
IjANBgkqhkiG9w0BAQEFAAOCAQ8AMIIBCgKCAQEAtghawBlCDqwFM4FKsyoLc4ZM
PoGA2sRvma1148cGY12onVbC+R2SMH4OAsX8J738Y9eUr/v6oWsJCOSGc+R+2o5/
t41YdkRvfK/frwPGv3Pn6eyhCH7ZwSfY0fP579mGDS4uu56EH/hp3KfLom3eLo4c
s1qBrgP2FusoOT+hvEFfOAwKov9PKLR5F4RKr/ewL+zS3dlanXxuevFT3zBxCAG/
p9VSsBvRJ8UkGg/HIGd2EhrUDqsarNHbnTkGqYASuaVmUlAWsuGlMRsl/FDSi2br
6MzbGHUl/lrlXyFavvD1uIKJfqBxLyAvU+ML7us+mtEQQ8e7vLrMvAbM3E511QID
AQABoxMwETAPBgNVHREECDAGhwR/AAABMA0GCSqGSIb3DQEBCwUAA4IBAQACrpXj
lNJH2Q40GnIKRfROZo9camQy3TiOgXAzb9VTiVMmACN85dLFmiSbNroM+mt5ofYn
NELB5F8ro3ZL3Cw3ka7gBG2qt3eroHFDIzkq8CoAif1ZoC69RI4+QPAI08DJ6m/7
cjohrg3gFm2aWNFa8tg+5Oj60f80RuGCTcucWVUHFKIdCT8MsCDpgdi/dUWAxD+P
0gxyXdjSokJ5wfBIETFh6pEK9Dgj3wkvg+j4snBnvjIgLTrqrDVbAF3Z1uBcXu48
+9b1TRCPySraMj4LDXGstEKidube/DeZ5h0z8OAtF+IRGIy7PPd55xRvt054alcW
NR0JDQkAVU19LTZL
-----END CERTIFICATE-----
