Certificate:
    Data:
        Version: 3 (0x2)
        Serial Number: 1 (0x1)
        Signature Algorithm: sha256WithRSAEncryption
        Issuer: C=JP, ST=Tokyo, O=KaoriYa, OU=Development, CN=ca.test.kaoriya.net
        Validity
            Not Before: Aug 20 07:29:38 2021 GMT
            Not After : Aug 20 07:29:38 2022 GMT
        Subject: C=JP, ST=Tokyo, O=KaoriYa, OU=Development, CN=target.test.kaoriya.net
        Subject Public Key Info:
            Public Key Algorithm: rsaEncryption
                RSA Public-Key: (2048 bit)
                Modulus:
                    00:b5:1b:51:c1:c5:1b:7b:9c:a3:15:14:06:00:ea:
                    9d:71:a7:81:e2:84:70:38:8d:a5:21:9c:0d:c9:b1:
                    04:c0:a3:e3:87:0e:21:d0:c9:7f:ce:3d:51:b2:1a:
                    8c:8a:47:ab:61:8d:31:75:58:d6:d8:ba:c0:54:5a:
                    a1:d8:4e:8b:61:0d:32:fe:d5:d1:f7:63:9d:3b:82:
                    1e:4c:a6:64:45:d3:d4:15:5e:e0:64:49:f7:20:a5:
                    ff:80:d3:80:d5:4f:b6:08:3d:74:66:76:f5:f0:e1:
                    ca:2e:56:6b:20:7e:36:38:46:ad:77:86:06:95:76:
                    82:03:65:9e:ef:b8:ce:07:ca:96:cc:15:6b:23:86:
                    44:68:e8:14:55:fb:2c:d5:45:da:3a:17:d0:ac:b0:
                    08:66:6e:de:8e:98:92:91:ac:c1:20:ca:07:81:0f:
                    9b:87:c6:3d:3a:2d:14:0c:71:88:1b:a9:b2:82:cf:
                    c8:b4:d3:ed:3f:ea:be:86:d4:d3:46:56:dd:78:67:
                    87:bb:16:f1:44:62:46:9f:f7:c8:ff:4c:28:3a:02:
                    4e:a4:2a:45:25:7f:55:45:45:59:af:23:c6:54:eb:
                    7e:3c:91:02:94:2f:c1:e7:5a:a1:fc:9f:3c:0e:ed:
                    0a:58:97:52:24:2d:b1:c2:8f:9b:f8:13:3f:b4:93:
                    d5:6f
                Exponent: 65537 (0x10001)
        X509v3 extensions:
            X509v3 Subject Alternative Name: 
                IP Address:127.0.0.1
    Signature Algorithm: sha256WithRSAEncryption
         4e:10:be:41:5b:06:06:36:e5:ad:c4:01:4f:38:7d:75:a0:af:
         c5:7b:ec:be:ec:3e:fb:9f:f6:c2:10:7f:f9:be:22:10:d3:7f:
         92:55:5b:59:56:af:39:12:3e:a2:4d:11:37:cd:30:c7:69:02:
         25:52:cb:ad:96:73:08:b9:8c:02:7e:55:41:c6:60:02:34:a1:
         ce:67:1c:f9:b8:50:8f:ad:d8:b6:3a:8e:fc:69:6c:cc:e7:91:
         a0:b6:1b:5c:b8:33:3c:01:9c:c1:1a:a7:9f:62:ac:21:39:f1:
         3f:cb:b0:6d:92:f8:d6:de:de:8f:a9:4a:e9:e1:08:d4:f1:a2:
         7f:df:15:d6:39:63:44:90:cf:16:0f:da:2c:f3:12:77:10:7f:
         14:15:07:da:24:5d:66:5f:33:b8:c9:42:54:22:f4:58:b6:ba:
         15:f3:e3:e1:8c:ba:ce:3d:0f:5c:e5:75:f7:cf:ef:77:fe:37:
         17:48:94:6b:0d:37:cf:65:d1:8b:9c:f3:6b:69:a6:18:23:d2:
         c7:9c:96:fa:53:d4:ea:91:bd:75:99:5a:4c:30:3f:7e:fb:db:
         57:83:47:95:e5:c6:ef:97:d5:02:57:4a:11:0e:48:ec:b0:d0:
         00:4f:fb:ac:4b:53:7c:b3:38:ab:d4:bd:13:02:66:e2:49:69:
         0b:45:f0:08
-----BEGIN CERTIFICATE-----
MIIDWDCCAkCgAwIBAgIBATANBgkqhkiG9w0BAQsFADBjMQswCQYDVQQGEwJKUDEO
MAwGA1UECAwFVG9reW8xEDAOBgNVBAoMB0thb3JpWWExFDASBgNVBAsMC0RldmVs
b3BtZW50MRwwGgYDVQQDDBNjYS50ZXN0Lmthb3JpeWEubmV0MB4XDTIxMDgyMDA3
MjkzOFoXDTIyMDgyMDA3MjkzOFowZzELMAkGA1UEBhMCSlAxDjAMBgNVBAgMBVRv
a3lvMRAwDgYDVQQKDAdLYW9yaVlhMRQwEgYDVQQLDAtEZXZlbG9wbWVudDEgMB4G
A1UEAwwXdGFyZ2V0LnRlc3Qua2Fvcml5YS5uZXQwggEiMA0GCSqGSIb3DQEBAQUA
A4IBDwAwggEKAoIBAQC1G1HBxRt7nKMVFAYA6p1xp4HihHA4jaUhnA3JsQTAo+OH
DiHQyX/OPVGyGoyKR6thjTF1WNbYusBUWqHYTothDTL+1dH3Y507gh5MpmRF09QV
XuBkSfcgpf+A04DVT7YIPXRmdvXw4couVmsgfjY4Rq13hgaVdoIDZZ7vuM4HypbM
FWsjhkRo6BRV+yzVRdo6F9CssAhmbt6OmJKRrMEgygeBD5uHxj06LRQMcYgbqbKC
z8i00+0/6r6G1NNGVt14Z4e7FvFEYkaf98j/TCg6Ak6kKkUlf1VFRVmvI8ZU6348
kQKUL8HnWqH8nzwO7QpYl1IkLbHCj5v4Ez+0k9VvAgMBAAGjEzARMA8GA1UdEQQI
MAaHBH8AAAEwDQYJKoZIhvcNAQELBQADggEBAE4QvkFbBgY25a3EAU84fXWgr8V7
7L7sPvuf9sIQf/m+IhDTf5JVW1lWrzkSPqJNETfNMMdpAiVSy62Wcwi5jAJ+VUHG
YAI0oc5nHPm4UI+t2LY6jvxpbMznkaC2G1y4MzwBnMEap59irCE58T/LsG2S+Nbe
3o+pSunhCNTxon/fFdY5Y0SQzxYP2izzEncQfxQVB9okXWZfM7jJQlQi9Fi2uhXz
4+GMus49D1zldffP73f+NxdIlGsNN89l0Yuc82tpphgj0seclvpT1OqRvXWZWkww
P37721eDR5Xlxu+X1QJXShEOSOyw0ABP+6xLU3yzOKvUvRMCZuJJaQtF8Ag=
-----END CERTIFICATE-----
