Certificate:
    Data:
        Version: 3 (0x2)
        Serial Number: 1 (0x1)
    Signature Algorithm: sha256WithRSAEncryption
        Issuer: C=JP, ST=Tokyo, O=KaoriYa, OU=Development, CN=ca.test.kaoriya.net
        Validity
            Not Before: Feb 16 09:44:57 2016 GMT
            Not After : Feb 15 09:44:57 2017 GMT
        Subject: C=JP, ST=Tokyo, O=KaoriYa, OU=Development, CN=target.test.kaoriya.net
        Subject Public Key Info:
            Public Key Algorithm: rsaEncryption
                Public-Key: (2048 bit)
                Modulus:
                    00:b5:1b:51:c1:c5:1b:7b:9c:a3:15:14:06:00:ea:
                    9d:71:a7:81:e2:84:70:38:8d:a5:21:9c:0d:c9:b1:
                    04:c0:a3:e3:87:0e:21:d0:c9:7f:ce:3d:51:b2:1a:
                    8c:8a:47:ab:61:8d:31:75:58:d6:d8:ba:c0:54:5a:
                    a1:d8:4e:8b:61:0d:32:fe:d5:d1:f7:63:9d:3b:82:
                    1e:4c:a6:64:45:d3:d4:15:5e:e0:64:49:f7:20:a5:
                    ff:80:d3:80:d5:4f:b6:08:3d:74:66:76:f5:f0:e1:
                    ca:2e:56:6b:20:7e:36:38:46:ad:77:86:06:95:76:
                    82:03:65:9e:ef:b8:ce:07:ca:96:cc:15:6b:23:86:
                    44:68:e8:14:55:fb:2c:d5:45:da:3a:17:d0:ac:b0:
                    08:66:6e:de:8e:98:92:91:ac:c1:20:ca:07:81:0f:
                    9b:87:c6:3d:3a:2d:14:0c:71:88:1b:a9:b2:82:cf:
                    c8:b4:d3:ed:3f:ea:be:86:d4:d3:46:56:dd:78:67:
                    87:bb:16:f1:44:62:46:9f:f7:c8:ff:4c:28:3a:02:
                    4e:a4:2a:45:25:7f:55:45:45:59:af:23:c6:54:eb:
                    7e:3c:91:02:94:2f:c1:e7:5a:a1:fc:9f:3c:0e:ed:
                    0a:58:97:52:24:2d:b1:c2:8f:9b:f8:13:3f:b4:93:
                    d5:6f
                Exponent: 65537 (0x10001)
        X509v3 extensions:
            X509v3 Subject Alternative Name: 
                IP Address:127.0.0.1
    Signature Algorithm: sha256WithRSAEncryption
         5f:f5:23:da:09:1b:d6:5a:65:92:93:e6:67:8a:d7:96:00:a8:
         e2:e6:d3:a5:92:0b:9a:d3:0e:e2:f1:60:47:69:a6:fa:ec:59:
         f7:16:8e:8f:11:09:e2:63:92:66:ad:b8:2e:70:7e:e5:47:49:
         63:bb:00:b4:af:20:8a:a5:44:4d:cc:40:ab:4c:12:4e:7c:04:
         c6:5a:3d:8b:f6:11:e3:81:79:c3:a1:4d:a5:37:b6:c1:f0:f5:
         df:0f:12:83:af:7e:8c:32:18:98:cb:68:ff:12:5a:85:c7:7d:
         a0:65:d6:f7:06:e9:25:64:07:86:49:80:4e:e4:82:e5:ac:84:
         47:a9:f3:63:6c:78:31:12:c2:59:ac:ca:d2:2b:0f:46:33:e4:
         d6:a9:05:f0:0b:74:a0:91:c1:ca:4f:6d:43:72:e5:5c:21:29:
         b1:41:39:3b:d1:24:c0:d9:aa:78:5b:c4:1e:18:ff:05:2c:6b:
         4c:25:22:ab:31:df:79:70:36:ea:9b:cb:d6:cb:67:17:98:dd:
         5c:89:9a:55:0d:a1:b0:8b:e7:5d:b0:7b:80:72:90:1e:b3:1d:
         2a:b6:93:4b:99:3e:ca:bc:d0:83:ea:83:5b:c9:ed:c8:31:13:
         6f:ec:da:c3:3e:be:a4:fa:17:5f:6d:a1:6b:39:b8:b3:9e:84:
         08:15:e5:88
-----BEGIN CERTIFICATE-----
MIIDWDCCAkCgAwIBAgIBATANBgkqhkiG9w0BAQsFADBjMQswCQYDVQQGEwJKUDEO
MAwGA1UECAwFVG9reW8xEDAOBgNVBAoMB0thb3JpWWExFDASBgNVBAsMC0RldmVs
b3BtZW50MRwwGgYDVQQDDBNjYS50ZXN0Lmthb3JpeWEubmV0MB4XDTE2MDIxNjA5
NDQ1N1oXDTE3MDIxNTA5NDQ1N1owZzELMAkGA1UEBhMCSlAxDjAMBgNVBAgMBVRv
a3lvMRAwDgYDVQQKDAdLYW9yaVlhMRQwEgYDVQQLDAtEZXZlbG9wbWVudDEgMB4G
A1UEAwwXdGFyZ2V0LnRlc3Qua2Fvcml5YS5uZXQwggEiMA0GCSqGSIb3DQEBAQUA
A4IBDwAwggEKAoIBAQC1G1HBxRt7nKMVFAYA6p1xp4HihHA4jaUhnA3JsQTAo+OH
DiHQyX/OPVGyGoyKR6thjTF1WNbYusBUWqHYTothDTL+1dH3Y507gh5MpmRF09QV
XuBkSfcgpf+A04DVT7YIPXRmdvXw4couVmsgfjY4Rq13hgaVdoIDZZ7vuM4HypbM
FWsjhkRo6BRV+yzVRdo6F9CssAhmbt6OmJKRrMEgygeBD5uHxj06LRQMcYgbqbKC
z8i00+0/6r6G1NNGVt14Z4e7FvFEYkaf98j/TCg6Ak6kKkUlf1VFRVmvI8ZU6348
kQKUL8HnWqH8nzwO7QpYl1IkLbHCj5v4Ez+0k9VvAgMBAAGjEzARMA8GA1UdEQQI
MAaHBH8AAAEwDQYJKoZIhvcNAQELBQADggEBAF/1I9oJG9ZaZZKT5meK15YAqOLm
06WSC5rTDuLxYEdppvrsWfcWjo8RCeJjkmatuC5wfuVHSWO7ALSvIIqlRE3MQKtM
Ek58BMZaPYv2EeOBecOhTaU3tsHw9d8PEoOvfowyGJjLaP8SWoXHfaBl1vcG6SVk
B4ZJgE7kguWshEep82NseDESwlmsytIrD0Yz5NapBfALdKCRwcpPbUNy5VwhKbFB
OTvRJMDZqnhbxB4Y/wUsa0wlIqsx33lwNuqby9bLZxeY3VyJmlUNobCL512we4By
kB6zHSq2k0uZPsq80IPqg1vJ7cgxE2/s2sM+vqT6F19toWs5uLOehAgV5Yg=
-----END CERTIFICATE-----
